target datalayout = "e-m:e-p270:32:32-p271:32:32-p272:64:64-i64:64-i128:128-f80:128-n8:16:32:64-S128"
target triple = "x86_64-pc-linux-gnu"

%struct.bitmap = type { ptr, i64 }
%struct.ewah_iterator = type { ptr, i64, i64, i64, i64, i64, i64, i32 }
%struct.ewah_bitmap = type { ptr, i64, i64, i64, ptr }

@.str = private unnamed_addr constant [27 x i8] c"size_t overflow: %lu * %lu\00", align 1

; Function Attrs: inlinehint nounwind uwtable
define internal i64 @st_mult(i64 noundef %0, i64 noundef %1) #3 {
  %3 = alloca i64, align 8
  %4 = alloca i64, align 8
  store i64 %0, ptr %3, align 8, !tbaa !4
  store i64 %1, ptr %4, align 8, !tbaa !4
  %5 = load i64, ptr %3, align 8, !tbaa !4
  %6 = icmp ne i64 %5, 0
  br i1 %6, label %7, label %15

7:                                                ; preds = %2
  %8 = load i64, ptr %4, align 8, !tbaa !4
  %9 = load i64, ptr %3, align 8, !tbaa !4
  %10 = udiv i64 -1, %9
  %11 = icmp ugt i64 %8, %10
  br i1 %11, label %12, label %15

12:                                               ; preds = %7
  %13 = load i64, ptr %3, align 8, !tbaa !4
  %14 = load i64, ptr %4, align 8, !tbaa !4
  call void (ptr, ...) @die(ptr noundef @.str, i64 noundef %13, i64 noundef %14) #9
  unreachable

15:                                               ; preds = %7, %2
  %16 = load i64, ptr %3, align 8, !tbaa !4
  %17 = load i64, ptr %4, align 8, !tbaa !4
  %18 = mul i64 %16, %17
  ret i64 %18
}

; Function Attrs: nounwind uwtable
define dso_local void @bitmap_or_ewah(ptr noundef %0, ptr noundef %1) #0 {
  %3 = alloca ptr, align 8
  %4 = alloca ptr, align 8
  %5 = alloca i64, align 8
  %6 = alloca i64, align 8
  %7 = alloca i64, align 8
  %8 = alloca %struct.ewah_iterator, align 8
  %9 = alloca i64, align 8
  store ptr %0, ptr %3, align 8, !tbaa !8
  store ptr %1, ptr %4, align 8, !tbaa !16
  call void @llvm.lifetime.start.p0(i64 8, ptr %5) #8
  %10 = load ptr, ptr %3, align 8, !tbaa !8
  %11 = getelementptr inbounds nuw %struct.bitmap, ptr %10, i32 0, i32 1
  %12 = load i64, ptr %11, align 8, !tbaa !14
  store i64 %12, ptr %5, align 8, !tbaa !4
  call void @llvm.lifetime.start.p0(i64 8, ptr %6) #8
  %13 = load ptr, ptr %4, align 8, !tbaa !16
  %14 = getelementptr inbounds nuw %struct.ewah_bitmap, ptr %13, i32 0, i32 3
  %15 = load i64, ptr %14, align 8, !tbaa !25
  %16 = udiv i64 %15, 64
  %17 = add i64 %16, 1
  store i64 %17, ptr %6, align 8, !tbaa !4
  call void @llvm.lifetime.start.p0(i64 8, ptr %7) #8
  store i64 0, ptr %7, align 8, !tbaa !4
  call void @llvm.lifetime.start.p0(i64 64, ptr %8) #8
  call void @llvm.lifetime.start.p0(i64 8, ptr %9) #8
  %18 = load ptr, ptr %3, align 8, !tbaa !8
  %19 = getelementptr inbounds nuw %struct.bitmap, ptr %18, i32 0, i32 1
  %20 = load i64, ptr %19, align 8, !tbaa !14
  %21 = load i64, ptr %6, align 8, !tbaa !4
  %22 = icmp ult i64 %20, %21
  br i1 %22, label %23, label %48

23:                                               ; preds = %2
  %24 = load i64, ptr %6, align 8, !tbaa !4
  %25 = load ptr, ptr %3, align 8, !tbaa !8
  %26 = getelementptr inbounds nuw %struct.bitmap, ptr %25, i32 0, i32 1
  store i64 %24, ptr %26, align 8, !tbaa !14
  %27 = load ptr, ptr %3, align 8, !tbaa !8
  %28 = getelementptr inbounds nuw %struct.bitmap, ptr %27, i32 0, i32 0
  %29 = load ptr, ptr %28, align 8, !tbaa !11
  %30 = load ptr, ptr %3, align 8, !tbaa !8
  %31 = getelementptr inbounds nuw %struct.bitmap, ptr %30, i32 0, i32 1
  %32 = load i64, ptr %31, align 8, !tbaa !14
  %33 = call i64 @st_mult(i64 noundef 8, i64 noundef %32)
  %34 = call ptr @xrealloc(ptr noundef %29, i64 noundef %33)
  %35 = load ptr, ptr %3, align 8, !tbaa !8
  %36 = getelementptr inbounds nuw %struct.bitmap, ptr %35, i32 0, i32 0
  store ptr %34, ptr %36, align 8, !tbaa !11
  %37 = load ptr, ptr %3, align 8, !tbaa !8
  %38 = getelementptr inbounds nuw %struct.bitmap, ptr %37, i32 0, i32 0
  %39 = load ptr, ptr %38, align 8, !tbaa !11
  %40 = load i64, ptr %5, align 8, !tbaa !4
  %41 = getelementptr inbounds nuw i64, ptr %39, i64 %40
  %42 = load ptr, ptr %3, align 8, !tbaa !8
  %43 = getelementptr inbounds nuw %struct.bitmap, ptr %42, i32 0, i32 1
  %44 = load i64, ptr %43, align 8, !tbaa !14
  %45 = load i64, ptr %5, align 8, !tbaa !4
  %46 = sub i64 %44, %45
  %47 = mul i64 %46, 8
  call void @llvm.memset.p0.i64(ptr align 8 %41, i8 0, i64 %47, i1 false)
  br label %48

48:                                               ; preds = %23, %2
  %49 = load ptr, ptr %4, align 8, !tbaa !16
  call void @ewah_iterator_init(ptr noundef %8, ptr noundef %49)
  br label %50

50:                                               ; preds = %53, %48
  %51 = call i32 @ewah_iterator_next(ptr noundef %9, ptr noundef %8)
  %52 = icmp ne i32 %51, 0
  br i1 %52, label %53, label %63

53:                                               ; preds = %50
  %54 = load i64, ptr %9, align 8, !tbaa !4
  %55 = load ptr, ptr %3, align 8, !tbaa !8
  %56 = getelementptr inbounds nuw %struct.bitmap, ptr %55, i32 0, i32 0
  %57 = load ptr, ptr %56, align 8, !tbaa !11
  %58 = load i64, ptr %7, align 8, !tbaa !4
  %59 = add i64 %58, 1
  store i64 %59, ptr %7, align 8, !tbaa !4
  %60 = getelementptr inbounds nuw i64, ptr %57, i64 %58
  %61 = load i64, ptr %60, align 8, !tbaa !4
  %62 = or i64 %61, %54
  store i64 %62, ptr %60, align 8, !tbaa !4
  br label %50, !llvm.loop !27

63:                                               ; preds = %50
  call void @llvm.lifetime.end.p0(i64 8, ptr %9) #8
  call void @llvm.lifetime.end.p0(i64 64, ptr %8) #8
  call void @llvm.lifetime.end.p0(i64 8, ptr %7) #8
  call void @llvm.lifetime.end.p0(i64 8, ptr %6) #8
  call void @llvm.lifetime.end.p0(i64 8, ptr %5) #8
  ret void
}