; Function Attrs: nounwind uwtable
define dso_local void @bitmap_or_ewah(ptr noundef captures(none) %0, ptr noundef %1) local_unnamed_addr #0 {
  %3 = alloca %struct.ewah_iterator, align 8
  %4 = alloca i64, align 8
  %5 = getelementptr inbounds nuw i8, ptr %0, i64 8
  %6 = load i64, ptr %5, align 8, !tbaa !11
  %7 = getelementptr inbounds nuw i8, ptr %1, i64 24
  %8 = load i64, ptr %7, align 8, !tbaa !20
  %9 = lshr i64 %8, 6
  call void @llvm.lifetime.start.p0(i64 64, ptr nonnull %3) #13
  call void @llvm.lifetime.start.p0(i64 8, ptr nonnull %4) #13
  %.not = icmp ugt i64 %6, %9
  br i1 %.not, label %18, label %st_mult.exit

st_mult.exit:                                     ; preds = %2
  %10 = add nuw nsw i64 %9, 1
  store i64 %10, ptr %5, align 8, !tbaa !11
  %11 = load ptr, ptr %0, align 8, !tbaa !4
  %12 = shl nuw nsw i64 %10, 3
  %13 = tail call ptr @xrealloc(ptr noundef %11, i64 noundef %12) #13
  store ptr %13, ptr %0, align 8, !tbaa !4
  %14 = getelementptr inbounds nuw i64, ptr %13, i64 %6
  %15 = load i64, ptr %5, align 8, !tbaa !11
  %16 = sub i64 %15, %6
  %17 = shl i64 %16, 3
  tail call void @llvm.memset.p0.i64(ptr align 8 %14, i8 0, i64 %17, i1 false)
  br label %18

18:                                               ; preds = %st_mult.exit, %2
  call void @ewah_iterator_init(ptr noundef nonnull %3, ptr noundef nonnull %1) #13
  %19 = call i32 @ewah_iterator_next(ptr noundef nonnull %4, ptr noundef nonnull %3) #13
  %.not1617 = icmp eq i32 %19, 0
  br i1 %.not1617, label %._crit_edge, label %.lr.ph

.lr.ph:                                           ; preds = %18, %.lr.ph
  %.018 = phi i64 [ %22, %.lr.ph ], [ 0, %18 ]
  %20 = load i64, ptr %4, align 8, !tbaa !12
  %21 = load ptr, ptr %0, align 8, !tbaa !4
  %22 = add i64 %.018, 1
  %23 = getelementptr inbounds nuw i64, ptr %21, i64 %.018
  %24 = load i64, ptr %23, align 8, !tbaa !12
  %25 = or i64 %24, %20
  store i64 %25, ptr %23, align 8, !tbaa !12
  %26 = call i32 @ewah_iterator_next(ptr noundef nonnull %4, ptr noundef nonnull %3) #13
  %.not16 = icmp eq i32 %26, 0
  br i1 %.not16, label %._crit_edge, label %.lr.ph, !llvm.loop !22

._crit_edge:                                      ; preds = %.lr.ph, %18
  call void @llvm.lifetime.end.p0(i64 8, ptr nonnull %4) #13
  call void @llvm.lifetime.end.p0(i64 64, ptr nonnull %3) #13
  ret void
}